; Function Attrs: nounwind uwtable
define internal void @xdot_end_node(ptr noundef readonly captures(none) %0) #0 {
agxblen.exit:
  %1 = getelementptr inbounds nuw i8, ptr %0, i64 32
  %2 = load ptr, ptr %1, align 8, !tbaa !3
  %3 = getelementptr inbounds nuw i8, ptr %2, i64 16
  %4 = load ptr, ptr %3, align 8, !tbaa !37
  %.val.i = load i8, ptr getelementptr inbounds nuw (i8, ptr @xbuf, i64 63), align 1, !tbaa !37
  %.not.i = icmp eq i8 %.val.i, -1
  %5 = zext i8 %.val.i to i64
  %6 = load i64, ptr getelementptr inbounds nuw (i8, ptr @xbuf, i64 40), align 8
  %.0.i = select i1 %.not.i, i64 %6, i64 %5
  %.not = icmp eq i64 %.0.i, 0
  br i1 %.not, label %agxblen.exit8, label %7

7:                                                ; preds = %agxblen.exit
  %8 = load ptr, ptr @xd, align 8, !tbaa !36
  %9 = getelementptr inbounds nuw i8, ptr %8, i64 16
  %10 = load ptr, ptr %9, align 8, !tbaa !77
  switch i8 %.val.i, label %agxbsizeof.exit.i.i [
    i8 -1, label %11
    i8 31, label %agxbclear.exit.thread.i
  ]

11:                                               ; preds = %7
  %12 = load i64, ptr getelementptr inbounds nuw (i8, ptr @xbuf, i64 48), align 16, !tbaa !37
  br label %agxbsizeof.exit.i.i

agxbsizeof.exit.i.i:                              ; preds = %7, %11
  %.0.i20.i.i = phi i64 [ %6, %11 ], [ %5, %7 ]
  %.0.i14.i.i = phi i64 [ %12, %11 ], [ 31, %7 ]
  %.not.i5.i = icmp ult i64 %.0.i20.i.i, %.0.i14.i.i
  br i1 %.not.i5.i, label %14, label %13

13:                                               ; preds = %agxbsizeof.exit.i.i
  tail call fastcc void @agxbmore(ptr noundef nonnull getelementptr inbounds nuw (i8, ptr @xbuf, i64 32), i64 noundef 1)
  %.val.i15.pre.i.i = load i8, ptr getelementptr inbounds nuw (i8, ptr @xbuf, i64 63), align 1, !tbaa !37
  br label %14

14:                                               ; preds = %13, %agxbsizeof.exit.i.i
  %.val.i15.i.i = phi i8 [ %.val.i15.pre.i.i, %13 ], [ %.val.i, %agxbsizeof.exit.i.i ]
  %.not.i16.i.i = icmp eq i8 %.val.i15.i.i, -1
  br i1 %.not.i16.i.i, label %20, label %15

15:                                               ; preds = %14
  %16 = zext i8 %.val.i15.i.i to i64
  %17 = getelementptr inbounds nuw [31 x i8], ptr getelementptr inbounds nuw (i8, ptr @xbuf, i64 32), i64 0, i64 %16
  store i8 0, ptr %17, align 1, !tbaa !37
  %18 = load i8, ptr getelementptr inbounds nuw (i8, ptr @xbuf, i64 63), align 1, !tbaa !37
  %19 = add i8 %18, 1
  store i8 %19, ptr getelementptr inbounds nuw (i8, ptr @xbuf, i64 63), align 1, !tbaa !37
  br label %agxbputc.exit.i

20:                                               ; preds = %14
  %21 = load i64, ptr getelementptr inbounds nuw (i8, ptr @xbuf, i64 40), align 8, !tbaa !37
  %22 = load ptr, ptr getelementptr inbounds nuw (i8, ptr @xbuf, i64 32), align 16, !tbaa !37
  %23 = getelementptr inbounds nuw i8, ptr %22, i64 %21
  store i8 0, ptr %23, align 1, !tbaa !37
  %24 = load i64, ptr getelementptr inbounds nuw (i8, ptr @xbuf, i64 40), align 8, !tbaa !37
  %25 = add i64 %24, 1
  store i64 %25, ptr getelementptr inbounds nuw (i8, ptr @xbuf, i64 40), align 8, !tbaa !37
  %.val.i6.pr.i = load i8, ptr getelementptr inbounds nuw (i8, ptr @xbuf, i64 63), align 1, !tbaa !37
  br label %agxbputc.exit.i

agxbputc.exit.i:                                  ; preds = %20, %15
  %.val.i8.pr.i = phi i8 [ %.val.i6.pr.i, %20 ], [ %19, %15 ]
  %.not.i7.i = icmp eq i8 %.val.i8.pr.i, -1
  br i1 %.not.i7.i, label %26, label %agxbclear.exit.thread.i

agxbclear.exit.thread.i:                          ; preds = %agxbputc.exit.i, %7
  store i8 0, ptr getelementptr inbounds nuw (i8, ptr @xbuf, i64 63), align 1, !tbaa !37
  br label %agxbuse.exit

26:                                               ; preds = %agxbputc.exit.i
  store i64 0, ptr getelementptr inbounds nuw (i8, ptr @xbuf, i64 40), align 8, !tbaa !37
  %27 = load ptr, ptr getelementptr inbounds nuw (i8, ptr @xbuf, i64 32), align 16, !tbaa !37
  br label %agxbuse.exit

agxbuse.exit:                                     ; preds = %agxbclear.exit.thread.i, %26
  %28 = phi ptr [ %27, %26 ], [ getelementptr inbounds nuw (i8, ptr @xbuf, i64 32), %agxbclear.exit.thread.i ]
  %29 = tail call i32 @agxset(ptr noundef %4, ptr noundef %10, ptr noundef %28) #18
  br label %agxblen.exit8

agxblen.exit8:                                    ; preds = %agxbuse.exit, %agxblen.exit
  %.val.i5 = load i8, ptr getelementptr inbounds nuw (i8, ptr @xbuf, i64 191), align 1, !tbaa !37
  %.not.i6 = icmp eq i8 %.val.i5, -1
  %30 = zext i8 %.val.i5 to i64
  %31 = load i64, ptr getelementptr inbounds nuw (i8, ptr @xbuf, i64 168), align 8
  %.0.i7 = select i1 %.not.i6, i64 %31, i64 %30
  %.not3 = icmp eq i64 %.0.i7, 0
  br i1 %.not3, label %54, label %32

32:                                               ; preds = %agxblen.exit8
  %33 = load ptr, ptr @xd, align 8, !tbaa !36
  %34 = getelementptr inbounds nuw i8, ptr %33, i64 24
  %35 = load ptr, ptr %34, align 8, !tbaa !78
  switch i8 %.val.i5, label %agxbsizeof.exit.i.i11 [
    i8 -1, label %36
    i8 31, label %agxbclear.exit.thread.i10
  ]

36:                                               ; preds = %32
  %37 = load i64, ptr getelementptr inbounds nuw (i8, ptr @xbuf, i64 176), align 16, !tbaa !37
  br label %agxbsizeof.exit.i.i11

agxbsizeof.exit.i.i11:                            ; preds = %32, %36
  %.0.i20.i.i12 = phi i64 [ %31, %36 ], [ %30, %32 ]
  %.0.i14.i.i13 = phi i64 [ %37, %36 ], [ 31, %32 ]
  %.not.i5.i14 = icmp ult i64 %.0.i20.i.i12, %.0.i14.i.i13
  br i1 %.not.i5.i14, label %39, label %38

38:                                               ; preds = %agxbsizeof.exit.i.i11
  tail call fastcc void @agxbmore(ptr noundef nonnull getelementptr inbounds nuw (i8, ptr @xbuf, i64 160), i64 noundef 1)
  %.val.i15.pre.i.i15 = load i8, ptr getelementptr inbounds nuw (i8, ptr @xbuf, i64 191), align 1, !tbaa !37
  br label %39

39:                                               ; preds = %38, %agxbsizeof.exit.i.i11
  %.val.i15.i.i16 = phi i8 [ %.val.i15.pre.i.i15, %38 ], [ %.val.i5, %agxbsizeof.exit.i.i11 ]
  %.not.i16.i.i17 = icmp eq i8 %.val.i15.i.i16, -1
  br i1 %.not.i16.i.i17, label %45, label %40

40:                                               ; preds = %39
  %41 = zext i8 %.val.i15.i.i16 to i64
  %42 = getelementptr inbounds nuw [31 x i8], ptr getelementptr inbounds nuw (i8, ptr @xbuf, i64 160), i64 0, i64 %41
  store i8 0, ptr %42, align 1, !tbaa !37
  %43 = load i8, ptr getelementptr inbounds nuw (i8, ptr @xbuf, i64 191), align 1, !tbaa !37
  %44 = add i8 %43, 1
  store i8 %44, ptr getelementptr inbounds nuw (i8, ptr @xbuf, i64 191), align 1, !tbaa !37
  br label %agxbputc.exit.i18

45:                                               ; preds = %39
  %46 = load i64, ptr getelementptr inbounds nuw (i8, ptr @xbuf, i64 168), align 8, !tbaa !37
  %47 = load ptr, ptr getelementptr inbounds nuw (i8, ptr @xbuf, i64 160), align 16, !tbaa !37
  %48 = getelementptr inbounds nuw i8, ptr %47, i64 %46
  store i8 0, ptr %48, align 1, !tbaa !37
  %49 = load i64, ptr getelementptr inbounds nuw (i8, ptr @xbuf, i64 168), align 8, !tbaa !37
  %50 = add i64 %49, 1
  store i64 %50, ptr getelementptr inbounds nuw (i8, ptr @xbuf, i64 168), align 8, !tbaa !37
  %.val.i6.pr.i21 = load i8, ptr getelementptr inbounds nuw (i8, ptr @xbuf, i64 191), align 1, !tbaa !37
  br label %agxbputc.exit.i18

agxbputc.exit.i18:                                ; preds = %45, %40
  %.val.i8.pr.i19 = phi i8 [ %.val.i6.pr.i21, %45 ], [ %44, %40 ]
  %.not.i7.i20 = icmp eq i8 %.val.i8.pr.i19, -1
  br i1 %.not.i7.i20, label %51, label %agxbclear.exit.thread.i10

agxbclear.exit.thread.i10:                        ; preds = %agxbputc.exit.i18, %32
  store i8 0, ptr getelementptr inbounds nuw (i8, ptr @xbuf, i64 191), align 1, !tbaa !37
  br label %agxbuse.exit23

51:                                               ; preds = %agxbputc.exit.i18
  store i64 0, ptr getelementptr inbounds nuw (i8, ptr @xbuf, i64 168), align 8, !tbaa !37
  %52 = load ptr, ptr getelementptr inbounds nuw (i8, ptr @xbuf, i64 160), align 16, !tbaa !37
  br label %agxbuse.exit23

agxbuse.exit23:                                   ; preds = %agxbclear.exit.thread.i10, %51
  %53 = phi ptr [ %52, %51 ], [ getelementptr inbounds nuw (i8, ptr @xbuf, i64 160), %agxbclear.exit.thread.i10 ]
  tail call fastcc void @put_escaping_backslashes(ptr noundef %4, ptr noundef %35, ptr noundef %53)
  br label %54

54:                                               ; preds = %agxbuse.exit23, %agxblen.exit8
  store double 1.000000e+00, ptr getelementptr inbounds nuw (i8, ptr @penwidth, i64 64), align 16, !tbaa !105
  store double 1.000000e+00, ptr getelementptr inbounds nuw (i8, ptr @penwidth, i64 80), align 16, !tbaa !105
  store i32 0, ptr getelementptr inbounds nuw (i8, ptr @textflags, i64 32), align 16, !tbaa !106
  store i32 0, ptr getelementptr inbounds nuw (i8, ptr @textflags, i64 40), align 8, !tbaa !106
  ret void
}